target datalayout = "e-m:e-p270:32:32-p271:32:32-p272:64:64-i64:64-i128:128-f80:128-n8:16:32:64-S128"
target triple = "x86_64-pc-linux-gnu"

%struct.timeval = type { i64, i64 }

; Function Attrs: inlinehint nounwind uwtable
define internal double @dt_get_wtime() #3 {
  %1 = alloca %struct.timeval, align 8
  call void @llvm.lifetime.start.p0(i64 16, ptr %1) #13
  %2 = call i32 @gettimeofday(ptr noundef %1, ptr noundef null) #13
  %3 = getelementptr inbounds nuw %struct.timeval, ptr %1, i32 0, i32 0
  %4 = load i64, ptr %3, align 8, !tbaa !219
  %5 = sub nsw i64 %4, 1290608000
  %6 = sitofp i64 %5 to double
  %7 = getelementptr inbounds nuw %struct.timeval, ptr %1, i32 0, i32 1
  %8 = load i64, ptr %7, align 8, !tbaa !221
  %9 = sitofp i64 %8 to double
  %10 = fmul reassoc nsz arcp contract afn double 0x3EB0C6F7A0B5ED8D, %9
  %11 = fadd reassoc nsz arcp contract afn double %6, %10
  call void @llvm.lifetime.end.p0(i64 16, ptr %1) #13
  ret double %11
}

; Function Attrs: inlinehint nounwind uwtable
define internal double @dt_get_lap_time(ptr noundef %0) #3 {
  %2 = alloca ptr, align 8
  %3 = alloca double, align 8
  store ptr %0, ptr %2, align 8, !tbaa !217
  call void @llvm.lifetime.start.p0(i64 8, ptr %3) #13
  %4 = load ptr, ptr %2, align 8, !tbaa !217
  %5 = load double, ptr %4, align 8, !tbaa !72
  store double %5, ptr %3, align 8, !tbaa !72
  %6 = call reassoc nsz arcp contract afn double @dt_get_wtime()
  %7 = load ptr, ptr %2, align 8, !tbaa !217
  store double %6, ptr %7, align 8, !tbaa !72
  %8 = load ptr, ptr %2, align 8, !tbaa !217
  %9 = load double, ptr %8, align 8, !tbaa !72
  %10 = load double, ptr %3, align 8, !tbaa !72
  %11 = fsub reassoc nsz arcp contract afn double %9, %10
  call void @llvm.lifetime.end.p0(i64 8, ptr %3) #13
  ret double %11
}