; Function Attrs: inlinehint nofree nounwind uwtable
define internal fastcc double @dt_get_lap_time(ptr noundef nonnull captures(none) %0) unnamed_addr #13 {
  %2 = alloca %struct.timeval, align 8
  %3 = load double, ptr %0, align 8, !tbaa !132
  call void @llvm.lifetime.start.p0(i64 16, ptr nonnull %2) #21
  %4 = call i32 @gettimeofday(ptr noundef nonnull %2, ptr noundef null) #21
  %5 = load i64, ptr %2, align 8, !tbaa !114
  %6 = add nsw i64 %5, -1290608000
  %7 = sitofp i64 %6 to double
  %8 = getelementptr inbounds nuw i8, ptr %2, i64 8
  %9 = load i64, ptr %8, align 8, !tbaa !116
  %10 = sitofp i64 %9 to double
  %11 = fmul reassoc nsz arcp contract afn double %10, 0x3EB0C6F7A0B5ED8D
  %12 = fadd reassoc nsz arcp contract afn double %11, %7
  call void @llvm.lifetime.end.p0(i64 16, ptr nonnull %2) #21
  store double %12, ptr %0, align 8, !tbaa !132
  %13 = fsub reassoc nsz arcp contract afn double %12, %3
  ret double %13
}